target datalayout = "e-m:e-p270:32:32-p271:32:32-p272:64:64-i64:64-i128:128-f80:128-n8:16:32:64-S128"
target triple = "x86_64-pc-linux-gnu"

@.str.33 = private unnamed_addr constant [37 x i8] c"PMIX ERROR: %s in file %s at line %d\00", align 1
@.str.34 = private unnamed_addr constant [20 x i8] c"base/ptl_base_fns.c\00", align 1

; Function Attrs: nounwind uwtable
define i32 @pmix_ptl_base_parse_uri(ptr noundef %0, ptr noundef %1, ptr noundef %2, ptr noundef %3) #0 {
  %5 = alloca i32, align 4
  %6 = alloca ptr, align 8
  %7 = alloca ptr, align 8
  %8 = alloca ptr, align 8
  %9 = alloca ptr, align 8
  %10 = alloca ptr, align 8
  %11 = alloca ptr, align 8
  %12 = alloca i32, align 4
  store ptr %0, ptr %6, align 8, !tbaa !8
  store ptr %1, ptr %7, align 8, !tbaa !62
  store ptr %2, ptr %8, align 8, !tbaa !88
  store ptr %3, ptr %9, align 8, !tbaa !62
  call void @llvm.lifetime.start.p0(i64 8, ptr %10) #13
  call void @llvm.lifetime.start.p0(i64 8, ptr %11) #13
  %13 = load ptr, ptr %6, align 8, !tbaa !8
  %14 = call ptr @PMIx_Argv_split(ptr noundef %13, i32 noundef 59)
  store ptr %14, ptr %10, align 8, !tbaa !62
  %15 = load ptr, ptr %10, align 8, !tbaa !62
  %16 = call i32 @PMIx_Argv_count(ptr noundef %15)
  %17 = icmp ne i32 2, %16
  br i1 %17, label %18, label %24

18:                                               ; preds = %4
  br label %19

19:                                               ; preds = %18
  %20 = call ptr @PMIx_Error_string(i32 noundef -27)
  call void (i32, ptr, ...) @pmix_output(i32 noundef 0, ptr noundef @.str.33, ptr noundef %20, ptr noundef @.str.34, i32 noundef 262)
  br label %21

21:                                               ; preds = %19
  br label %22

22:                                               ; preds = %21
  %23 = load ptr, ptr %10, align 8, !tbaa !62
  call void @PMIx_Argv_free(ptr noundef %23)
  store i32 -47, ptr %5, align 4
  store i32 1, ptr %12, align 4
  br label %59

24:                                               ; preds = %4
  %25 = load ptr, ptr %10, align 8, !tbaa !62
  %26 = getelementptr inbounds ptr, ptr %25, i64 0
  %27 = load ptr, ptr %26, align 8, !tbaa !8
  %28 = call ptr @strrchr(ptr noundef %27, i32 noundef 46) #14
  store ptr %28, ptr %11, align 8, !tbaa !8
  %29 = icmp eq ptr null, %28
  br i1 %29, label %30, label %36

30:                                               ; preds = %24
  br label %31

31:                                               ; preds = %30
  %32 = call ptr @PMIx_Error_string(i32 noundef -27)
  call void (i32, ptr, ...) @pmix_output(i32 noundef 0, ptr noundef @.str.33, ptr noundef %32, ptr noundef @.str.34, i32 noundef 272)
  br label %33

33:                                               ; preds = %31
  br label %34

34:                                               ; preds = %33
  %35 = load ptr, ptr %10, align 8, !tbaa !62
  call void @PMIx_Argv_free(ptr noundef %35)
  store i32 -47, ptr %5, align 4
  store i32 1, ptr %12, align 4
  br label %59

36:                                               ; preds = %24
  %37 = load ptr, ptr %11, align 8, !tbaa !8
  store i8 0, ptr %37, align 1, !tbaa !32
  %38 = load ptr, ptr %11, align 8, !tbaa !8
  %39 = getelementptr inbounds nuw i8, ptr %38, i32 1
  store ptr %39, ptr %11, align 8, !tbaa !8
  %40 = load ptr, ptr %10, align 8, !tbaa !62
  %41 = getelementptr inbounds ptr, ptr %40, i64 0
  %42 = load ptr, ptr %41, align 8, !tbaa !8
  %43 = call noalias ptr @strdup(ptr noundef %42) #13
  %44 = load ptr, ptr %7, align 8, !tbaa !62
  store ptr %43, ptr %44, align 8, !tbaa !8
  %45 = load ptr, ptr %11, align 8, !tbaa !8
  %46 = call i64 @strtoull(ptr noundef %45, ptr noundef null, i32 noundef 10) #13
  %47 = trunc i64 %46 to i32
  %48 = load ptr, ptr %8, align 8, !tbaa !88
  store i32 %47, ptr %48, align 4, !tbaa !60
  %49 = load ptr, ptr %9, align 8, !tbaa !62
  %50 = icmp ne ptr null, %49
  br i1 %50, label %51, label %57

51:                                               ; preds = %36
  %52 = load ptr, ptr %10, align 8, !tbaa !62
  %53 = getelementptr inbounds ptr, ptr %52, i64 1
  %54 = load ptr, ptr %53, align 8, !tbaa !8
  %55 = call noalias ptr @strdup(ptr noundef %54) #13
  %56 = load ptr, ptr %9, align 8, !tbaa !62
  store ptr %55, ptr %56, align 8, !tbaa !8
  br label %57

57:                                               ; preds = %51, %36
  %58 = load ptr, ptr %10, align 8, !tbaa !62
  call void @PMIx_Argv_free(ptr noundef %58)
  store i32 0, ptr %5, align 4
  store i32 1, ptr %12, align 4
  br label %59

59:                                               ; preds = %57, %34, %22
  call void @llvm.lifetime.end.p0(i64 8, ptr %11) #13
  call void @llvm.lifetime.end.p0(i64 8, ptr %10) #13
  %60 = load i32, ptr %5, align 4
  ret i32 %60
}