; Function Attrs: nounwind uwtable
define range(i32 -47, 1) i32 @pmix_ptl_base_parse_uri(ptr noundef %0, ptr noundef writeonly captures(none) %1, ptr noundef writeonly captures(none) %2, ptr noundef writeonly captures(address_is_null) %3) local_unnamed_addr #0 {
  %5 = tail call ptr @PMIx_Argv_split(ptr noundef %0, i32 noundef 59) #20
  %6 = tail call i32 @PMIx_Argv_count(ptr noundef %5) #20
  %.not = icmp eq i32 %6, 2
  br i1 %.not, label %9, label %7

7:                                                ; preds = %4
  %8 = tail call ptr @PMIx_Error_string(i32 noundef -27) #20
  tail call void (i32, ptr, ...) @pmix_output(i32 noundef 0, ptr noundef nonnull @.str.33, ptr noundef %8, ptr noundef nonnull @.str.34, i32 noundef 262) #20
  br label %25

9:                                                ; preds = %4
  %10 = load ptr, ptr %5, align 8, !tbaa !29
  %11 = tail call ptr @strrchr(ptr noundef nonnull dereferenceable(1) %10, i32 noundef 46) #21
  %12 = icmp eq ptr %11, null
  br i1 %12, label %13, label %15

13:                                               ; preds = %9
  %14 = tail call ptr @PMIx_Error_string(i32 noundef -27) #20
  tail call void (i32, ptr, ...) @pmix_output(i32 noundef 0, ptr noundef nonnull @.str.33, ptr noundef %14, ptr noundef nonnull @.str.34, i32 noundef 272) #20
  br label %25

15:                                               ; preds = %9
  store i8 0, ptr %11, align 1, !tbaa !28
  %16 = getelementptr inbounds nuw i8, ptr %11, i64 1
  %17 = load ptr, ptr %5, align 8, !tbaa !29
  %18 = tail call noalias ptr @strdup(ptr noundef %17) #20
  store ptr %18, ptr %1, align 8, !tbaa !29
  %19 = tail call i64 @strtoull(ptr noundef nonnull captures(none) %16, ptr noundef null, i32 noundef 10) #20
  %20 = trunc i64 %19 to i32
  store i32 %20, ptr %2, align 4, !tbaa !77
  %.not17 = icmp eq ptr %3, null
  br i1 %.not17, label %25, label %21

21:                                               ; preds = %15
  %22 = getelementptr inbounds nuw i8, ptr %5, i64 8
  %23 = load ptr, ptr %22, align 8, !tbaa !29
  %24 = tail call noalias ptr @strdup(ptr noundef %23) #20
  store ptr %24, ptr %3, align 8, !tbaa !29
  br label %25

25:                                               ; preds = %15, %21, %13, %7
  %.0 = phi i32 [ -47, %7 ], [ -47, %13 ], [ 0, %21 ], [ 0, %15 ]
  tail call void @PMIx_Argv_free(ptr noundef %5) #20
  ret i32 %.0
}